target datalayout = "e-m:e-p270:32:32-p271:32:32-p272:64:64-i64:64-i128:128-f80:128-n8:16:32:64-S128"
target triple = "x86_64-pc-linux-gnu"

%struct.cli_ctx_tag = type { ptr, ptr, ptr, ptr, ptr, ptr, ptr, i64, ptr, i32, i32, ptr, i32, i32, ptr, [16 x i8], ptr, ptr, ptr, ptr, ptr, ptr, %struct.timeval, i8, i8 }
%struct.timeval = type { i64, i64 }
%struct.cl_engine = type { i32, i32, i32, [2 x i32], i32, i32, i32, ptr, i32, i64, i32, i32, i64, i64, i32, i32, i32, i32, ptr, ptr, ptr, ptr, ptr, ptr, ptr, ptr, ptr, ptr, ptr, ptr, ptr, ptr, ptr, ptr, ptr, ptr, ptr, i64, ptr, %struct.crtmgr, ptr, ptr, ptr, ptr, ptr, ptr, ptr, ptr, ptr, ptr, ptr, ptr, ptr, ptr, ptr, ptr, ptr, %struct.cli_all_bc, [7 x ptr], [7 x i32], i32, i32, i32, i32, i64, i64, i64, i64, i64, ptr, ptr, ptr, ptr, ptr, ptr, ptr, ptr, ptr, i32, i32, i32, i64, i64, i64, ptr }
%struct.crtmgr = type { ptr, i32 }
%struct.cli_all_bc = type { ptr, i32, ptr, %struct.cli_environment, i32 }
%struct.cli_environment = type { i32, i32, i32, i32, i32, i32, i32, [65 x i8], [65 x i8], [65 x i8], [65 x i8], [65 x i8], [65 x i8], [65 x i8], i8, i8, i8, i8, i8, i8, i8, i8, i8 }

@xmlFree = external global ptr, align 8
@.str.40 = private unnamed_addr constant [41 x i8] c"cli_scanxar: error unlinking tmpfile %s\0A\00", align 1
@.str.41 = private unnamed_addr constant [53 x i8] c"cli_scanxar: xmlTextReaderConstLocalName() no name.\0A\00", align 1
@.str.42 = private unnamed_addr constant [4 x i8] c"toc\00", align 1
@.str.43 = private unnamed_addr constant [7 x i8] c"subdoc\00", align 1
@.str.44 = private unnamed_addr constant [44 x i8] c"cli_scanxar: no content in subdoc element.\0A\00", align 1
@.str.45 = private unnamed_addr constant [57 x i8] c"cli_scanxar: in-memory scan of xml subdocument, len %i.\0A\00", align 1
@.str.46 = private unnamed_addr constant [59 x i8] c"cli_scanxar: Can't create temporary file for subdocument.\0A\00", align 1
@.str.47 = private unnamed_addr constant [46 x i8] c"cli_scanxar: Writing subdoc to temp file %s.\0A\00", align 1
@.str.48 = private unnamed_addr constant [62 x i8] c"cli_scanxar: cli_writen error writing subdoc temporary file.\0A\00", align 1

; Function Attrs: nounwind uwtable
define internal i32 @xar_cleanup_temp_file(ptr noundef %0, i32 noundef %1, ptr noundef %2) #0 {
  %4 = alloca ptr, align 8
  %5 = alloca i32, align 4
  %6 = alloca ptr, align 8
  %7 = alloca i32, align 4
  store ptr %0, ptr %4, align 8, !tbaa !3
  store i32 %1, ptr %5, align 4, !tbaa !8
  store ptr %2, ptr %6, align 8, !tbaa !27
  call void @llvm.lifetime.start.p0(i64 4, ptr %7) #9
  store i32 0, ptr %7, align 4, !tbaa !8
  %8 = load i32, ptr %5, align 4, !tbaa !8
  %9 = icmp sgt i32 %8, -1
  br i1 %9, label %10, label %13

10:                                               ; preds = %3
  %11 = load i32, ptr %5, align 4, !tbaa !8
  %12 = call i32 @close(i32 noundef %11)
  br label %13

13:                                               ; preds = %10, %3
  %14 = load ptr, ptr %6, align 8, !tbaa !27
  %15 = icmp ne ptr %14, null
  br i1 %15, label %16, label %32

16:                                               ; preds = %13
  %17 = load ptr, ptr %4, align 8, !tbaa !3
  %18 = getelementptr inbounds nuw %struct.cli_ctx_tag, ptr %17, i32 0, i32 6
  %19 = load ptr, ptr %18, align 8, !tbaa !47
  %20 = getelementptr inbounds nuw %struct.cl_engine, ptr %19, i32 0, i32 8
  %21 = load i32, ptr %20, align 8, !tbaa !48
  %22 = icmp ne i32 %21, 0
  br i1 %22, label %30, label %23

23:                                               ; preds = %16
  %24 = load ptr, ptr %6, align 8, !tbaa !27
  %25 = call i32 @cli_unlink(ptr noundef %24)
  %26 = icmp ne i32 %25, 0
  br i1 %26, label %27, label %29

27:                                               ; preds = %23
  %28 = load ptr, ptr %6, align 8, !tbaa !27
  call void (ptr, ...) @cli_dbgmsg(ptr noundef @.str.40, ptr noundef %28)
  store i32 10, ptr %7, align 4, !tbaa !8
  br label %29

29:                                               ; preds = %27, %23
  br label %30

30:                                               ; preds = %29, %16
  %31 = load ptr, ptr %6, align 8, !tbaa !27
  call void @free(ptr noundef %31) #9
  br label %32

32:                                               ; preds = %30, %13
  %33 = load i32, ptr %7, align 4, !tbaa !8
  call void @llvm.lifetime.end.p0(i64 4, ptr %7) #9
  ret i32 %33
}

; Function Attrs: nounwind uwtable
define internal i32 @xar_scan_subdocuments(ptr noundef %0, ptr noundef %1) #0 {
  %3 = alloca i32, align 4
  %4 = alloca ptr, align 8
  %5 = alloca ptr, align 8
  %6 = alloca i32, align 4
  %7 = alloca i32, align 4
  %8 = alloca i32, align 4
  %9 = alloca ptr, align 8
  %10 = alloca ptr, align 8
  %11 = alloca ptr, align 8
  %12 = alloca i32, align 4
  store ptr %0, ptr %4, align 8, !tbaa !28
  store ptr %1, ptr %5, align 8, !tbaa !3
  call void @llvm.lifetime.start.p0(i64 4, ptr %6) #9
  store i32 0, ptr %6, align 4, !tbaa !8
  call void @llvm.lifetime.start.p0(i64 4, ptr %7) #9
  call void @llvm.lifetime.start.p0(i64 4, ptr %8) #9
  call void @llvm.lifetime.start.p0(i64 8, ptr %9) #9
  call void @llvm.lifetime.start.p0(i64 8, ptr %10) #9
  call void @llvm.lifetime.start.p0(i64 8, ptr %11) #9
  br label %13

13:                                               ; preds = %95, %45, %2
  %14 = load ptr, ptr %4, align 8, !tbaa !28
  %15 = call i32 @xmlTextReaderRead(ptr noundef %14)
  %16 = icmp eq i32 %15, 1
  br i1 %16, label %17, label %96

17:                                               ; preds = %13
  %18 = load ptr, ptr %4, align 8, !tbaa !28
  %19 = call ptr @xmlTextReaderConstLocalName(ptr noundef %18)
  store ptr %19, ptr %10, align 8, !tbaa !27
  %20 = load ptr, ptr %10, align 8, !tbaa !27
  %21 = icmp eq ptr %20, null
  br i1 %21, label %22, label %23

22:                                               ; preds = %17
  call void (ptr, ...) @cli_dbgmsg(ptr noundef @.str.41)
  store i32 26, ptr %6, align 4, !tbaa !8
  br label %96

23:                                               ; preds = %17
  %24 = load ptr, ptr %10, align 8, !tbaa !27
  %25 = call i32 @xmlStrEqual(ptr noundef %24, ptr noundef @.str.42)
  %26 = icmp ne i32 %25, 0
  br i1 %26, label %27, label %32

27:                                               ; preds = %23
  %28 = load ptr, ptr %4, align 8, !tbaa !28
  %29 = call i32 @xmlTextReaderNodeType(ptr noundef %28)
  %30 = icmp eq i32 %29, 1
  br i1 %30, label %31, label %32

31:                                               ; preds = %27
  store i32 0, ptr %3, align 4
  store i32 1, ptr %12, align 4
  br label %98

32:                                               ; preds = %27, %23
  %33 = load ptr, ptr %10, align 8, !tbaa !27
  %34 = call i32 @xmlStrEqual(ptr noundef %33, ptr noundef @.str.43)
  %35 = icmp ne i32 %34, 0
  br i1 %35, label %36, label %95

36:                                               ; preds = %32
  %37 = load ptr, ptr %4, align 8, !tbaa !28
  %38 = call i32 @xmlTextReaderNodeType(ptr noundef %37)
  %39 = icmp eq i32 %38, 1
  br i1 %39, label %40, label %95

40:                                               ; preds = %36
  %41 = load ptr, ptr %4, align 8, !tbaa !28
  %42 = call ptr @xmlTextReaderReadInnerXml(ptr noundef %41)
  store ptr %42, ptr %9, align 8, !tbaa !27
  %43 = load ptr, ptr %9, align 8, !tbaa !27
  %44 = icmp eq ptr %43, null
  br i1 %44, label %45, label %48

45:                                               ; preds = %40
  call void (ptr, ...) @cli_dbgmsg(ptr noundef @.str.44)
  %46 = load ptr, ptr %4, align 8, !tbaa !28
  %47 = call i32 @xmlTextReaderNext(ptr noundef %46)
  br label %13

48:                                               ; preds = %40
  %49 = load ptr, ptr %9, align 8, !tbaa !27
  %50 = call i32 @xmlStrlen(ptr noundef %49)
  store i32 %50, ptr %7, align 4, !tbaa !8
  %51 = load i32, ptr %7, align 4, !tbaa !8
  call void (ptr, ...) @cli_dbgmsg(ptr noundef @.str.45, i32 noundef %51)
  %52 = load ptr, ptr %9, align 8, !tbaa !27
  %53 = load i32, ptr %7, align 4, !tbaa !8
  %54 = sext i32 %53 to i64
  %55 = load ptr, ptr %5, align 8, !tbaa !3
  %56 = call i32 @cli_magic_scan_buff(ptr noundef %52, i64 noundef %54, ptr noundef %55, ptr noundef null, i32 noundef 0)
  store i32 %56, ptr %6, align 4, !tbaa !8
  %57 = load ptr, ptr %5, align 8, !tbaa !3
  %58 = getelementptr inbounds nuw %struct.cli_ctx_tag, ptr %57, i32 0, i32 6
  %59 = load ptr, ptr %58, align 8, !tbaa !47
  %60 = getelementptr inbounds nuw %struct.cl_engine, ptr %59, i32 0, i32 8
  %61 = load i32, ptr %60, align 8, !tbaa !48
  %62 = icmp ne i32 %61, 0
  br i1 %62, label %63, label %85

63:                                               ; preds = %48
  %64 = load ptr, ptr %5, align 8, !tbaa !3
  %65 = getelementptr inbounds nuw %struct.cli_ctx_tag, ptr %64, i32 0, i32 2
  %66 = load ptr, ptr %65, align 8, !tbaa !67
  %67 = call i32 @cli_gentempfd(ptr noundef %66, ptr noundef %11, ptr noundef %8)
  store i32 %67, ptr %6, align 4, !tbaa !8
  %68 = icmp ne i32 %67, 0
  br i1 %68, label %69, label %70

69:                                               ; preds = %63
  call void (ptr, ...) @cli_dbgmsg(ptr noundef @.str.46)
  br label %84

70:                                               ; preds = %63
  %71 = load ptr, ptr %11, align 8, !tbaa !27
  call void (ptr, ...) @cli_dbgmsg(ptr noundef @.str.47, ptr noundef %71)
  %72 = load i32, ptr %8, align 4, !tbaa !8
  %73 = load ptr, ptr %9, align 8, !tbaa !27
  %74 = load i32, ptr %7, align 4, !tbaa !8
  %75 = sext i32 %74 to i64
  %76 = call i64 @cli_writen(i32 noundef %72, ptr noundef %73, i64 noundef %75)
  %77 = icmp eq i64 %76, -1
  br i1 %77, label %78, label %79

78:                                               ; preds = %70
  call void (ptr, ...) @cli_dbgmsg(ptr noundef @.str.48)
  store i32 14, ptr %6, align 4, !tbaa !8
  br label %79

79:                                               ; preds = %78, %70
  %80 = load ptr, ptr %5, align 8, !tbaa !3
  %81 = load i32, ptr %8, align 4, !tbaa !8
  %82 = load ptr, ptr %11, align 8, !tbaa !27
  %83 = call i32 @xar_cleanup_temp_file(ptr noundef %80, i32 noundef %81, ptr noundef %82)
  store i32 %83, ptr %6, align 4, !tbaa !8
  store ptr null, ptr %11, align 8, !tbaa !27
  br label %84

84:                                               ; preds = %79, %69
  br label %85

85:                                               ; preds = %84, %48
  %86 = load ptr, ptr @xmlFree, align 8, !tbaa !30
  %87 = load ptr, ptr %9, align 8, !tbaa !27
  call void %86(ptr noundef %87)
  %88 = load i32, ptr %6, align 4, !tbaa !8
  %89 = icmp ne i32 %88, 0
  br i1 %89, label %90, label %92

90:                                               ; preds = %85
  %91 = load i32, ptr %6, align 4, !tbaa !8
  store i32 %91, ptr %3, align 4
  store i32 1, ptr %12, align 4
  br label %98

92:                                               ; preds = %85
  %93 = load ptr, ptr %4, align 8, !tbaa !28
  %94 = call i32 @xmlTextReaderNext(ptr noundef %93)
  br label %95

95:                                               ; preds = %92, %36, %32
  br label %13

96:                                               ; preds = %22, %13
  %97 = load i32, ptr %6, align 4, !tbaa !8
  store i32 %97, ptr %3, align 4
  store i32 1, ptr %12, align 4
  br label %98

98:                                               ; preds = %96, %90, %31
  call void @llvm.lifetime.end.p0(i64 8, ptr %11) #9
  call void @llvm.lifetime.end.p0(i64 8, ptr %10) #9
  call void @llvm.lifetime.end.p0(i64 8, ptr %9) #9
  call void @llvm.lifetime.end.p0(i64 4, ptr %8) #9
  call void @llvm.lifetime.end.p0(i64 4, ptr %7) #9
  call void @llvm.lifetime.end.p0(i64 4, ptr %6) #9
  %99 = load i32, ptr %3, align 4
  ret i32 %99
}