; Function Attrs: nounwind uwtable
define internal fastcc i32 @xar_scan_subdocuments(ptr noundef nonnull %0, ptr noundef %1) unnamed_addr #0 {
  %3 = alloca i32, align 4
  %4 = alloca ptr, align 8
  call void @llvm.lifetime.start.p0(i64 4, ptr nonnull %3) #10
  call void @llvm.lifetime.start.p0(i64 8, ptr nonnull %4) #10
  %5 = tail call i32 @xmlTextReaderRead(ptr noundef nonnull %0) #10
  %6 = icmp eq i32 %5, 1
  br i1 %6, label %.lr.ph, label %.loopexit

.lr.ph:                                           ; preds = %2
  %7 = getelementptr inbounds nuw i8, ptr %1, i64 48
  %8 = getelementptr inbounds nuw i8, ptr %1, i64 16
  br label %9

9:                                                ; preds = %.lr.ph, %.backedge
  %10 = call ptr @xmlTextReaderConstLocalName(ptr noundef nonnull %0) #10
  %11 = icmp eq ptr %10, null
  br i1 %11, label %12, label %13

12:                                               ; preds = %9
  call void (ptr, ...) @cli_dbgmsg(ptr noundef nonnull @.str.41) #10
  br label %.loopexit

13:                                               ; preds = %9
  %14 = call i32 @xmlStrEqual(ptr noundef nonnull %10, ptr noundef nonnull @.str.42) #10
  %.not = icmp eq i32 %14, 0
  br i1 %.not, label %18, label %15

15:                                               ; preds = %13
  %16 = call i32 @xmlTextReaderNodeType(ptr noundef nonnull %0) #10
  %17 = icmp eq i32 %16, 1
  br i1 %17, label %.loopexit, label %18

18:                                               ; preds = %15, %13
  %19 = call i32 @xmlStrEqual(ptr noundef nonnull %10, ptr noundef nonnull @.str.43) #10
  %.not29 = icmp eq i32 %19, 0
  br i1 %.not29, label %.backedge, label %20

20:                                               ; preds = %18
  %21 = call i32 @xmlTextReaderNodeType(ptr noundef nonnull %0) #10
  %22 = icmp eq i32 %21, 1
  br i1 %22, label %23, label %.backedge

23:                                               ; preds = %20
  %24 = call ptr @xmlTextReaderReadInnerXml(ptr noundef nonnull %0) #10
  %25 = icmp eq ptr %24, null
  br i1 %25, label %26, label %30

26:                                               ; preds = %23
  call void (ptr, ...) @cli_dbgmsg(ptr noundef nonnull @.str.44) #10
  br label %.backedge.sink.split

.backedge.sink.split:                             ; preds = %62, %26
  %27 = call i32 @xmlTextReaderNext(ptr noundef nonnull %0) #10
  br label %.backedge

.backedge:                                        ; preds = %.backedge.sink.split, %18, %20
  %28 = call i32 @xmlTextReaderRead(ptr noundef nonnull %0) #10
  %29 = icmp eq i32 %28, 1
  br i1 %29, label %9, label %.loopexit

30:                                               ; preds = %23
  %31 = call i32 @xmlStrlen(ptr noundef nonnull %24) #10
  call void (ptr, ...) @cli_dbgmsg(ptr noundef nonnull @.str.45, i32 noundef %31) #10
  %32 = sext i32 %31 to i64
  %33 = call i32 @cli_magic_scan_buff(ptr noundef nonnull %24, i64 noundef %32, ptr noundef %1, ptr noundef null, i32 noundef 0) #10
  %34 = load ptr, ptr %7, align 8, !tbaa !44
  %35 = getelementptr inbounds nuw i8, ptr %34, i64 40
  %36 = load i32, ptr %35, align 8, !tbaa !45
  %.not30 = icmp eq i32 %36, 0
  br i1 %.not30, label %62, label %37

37:                                               ; preds = %30
  %38 = load ptr, ptr %8, align 8, !tbaa !64
  %39 = call i32 @cli_gentempfd(ptr noundef %38, ptr noundef nonnull %4, ptr noundef nonnull %3) #10
  %.not31 = icmp eq i32 %39, 0
  br i1 %.not31, label %41, label %.thread

.thread:                                          ; preds = %37
  call void (ptr, ...) @cli_dbgmsg(ptr noundef nonnull @.str.46) #10
  %40 = load ptr, ptr @xmlFree, align 8, !tbaa !66
  call void %40(ptr noundef nonnull %24) #10
  br label %.loopexit

41:                                               ; preds = %37
  %42 = load ptr, ptr %4, align 8, !tbaa !24
  call void (ptr, ...) @cli_dbgmsg(ptr noundef nonnull @.str.47, ptr noundef %42) #10
  %43 = load i32, ptr %3, align 4, !tbaa !3
  %44 = call i64 @cli_writen(i32 noundef %43, ptr noundef nonnull %24, i64 noundef %32) #10
  %45 = icmp eq i64 %44, -1
  br i1 %45, label %46, label %47

46:                                               ; preds = %41
  call void (ptr, ...) @cli_dbgmsg(ptr noundef nonnull @.str.48) #10
  br label %47

47:                                               ; preds = %46, %41
  %48 = load i32, ptr %3, align 4, !tbaa !3
  %49 = load ptr, ptr %4, align 8, !tbaa !24
  %50 = icmp sgt i32 %48, -1
  br i1 %50, label %51, label %53

51:                                               ; preds = %47
  %52 = call i32 @close(i32 noundef %48) #10
  br label %53

53:                                               ; preds = %51, %47
  %.not.i = icmp eq ptr %49, null
  br i1 %.not.i, label %xar_cleanup_temp_file.exit, label %54

54:                                               ; preds = %53
  %55 = load ptr, ptr %7, align 8, !tbaa !44
  %56 = getelementptr inbounds nuw i8, ptr %55, i64 40
  %57 = load i32, ptr %56, align 8, !tbaa !45
  %.not9.i = icmp eq i32 %57, 0
  br i1 %.not9.i, label %58, label %61

58:                                               ; preds = %54
  %59 = call i32 @cli_unlink(ptr noundef nonnull %49) #10
  %.not10.i = icmp eq i32 %59, 0
  br i1 %.not10.i, label %61, label %60

60:                                               ; preds = %58
  call void (ptr, ...) @cli_dbgmsg(ptr noundef nonnull @.str.40, ptr noundef nonnull %49) #10
  br label %61

61:                                               ; preds = %60, %58, %54
  %.1.i = phi i32 [ 0, %54 ], [ 10, %60 ], [ 0, %58 ]
  call void @free(ptr noundef nonnull %49) #10
  br label %xar_cleanup_temp_file.exit

xar_cleanup_temp_file.exit:                       ; preds = %53, %61
  %.0.i = phi i32 [ %.1.i, %61 ], [ 0, %53 ]
  store ptr null, ptr %4, align 8, !tbaa !24
  br label %62

62:                                               ; preds = %xar_cleanup_temp_file.exit, %30
  %.3 = phi i32 [ %.0.i, %xar_cleanup_temp_file.exit ], [ %33, %30 ]
  %63 = load ptr, ptr @xmlFree, align 8, !tbaa !66
  call void %63(ptr noundef nonnull %24) #10
  %.not32 = icmp eq i32 %.3, 0
  br i1 %.not32, label %.backedge.sink.split, label %.loopexit

.loopexit:                                        ; preds = %15, %62, %.backedge, %2, %.thread, %12
  %.0 = phi i32 [ 26, %12 ], [ %39, %.thread ], [ 0, %2 ], [ 0, %15 ], [ %.3, %62 ], [ 0, %.backedge ]
  call void @llvm.lifetime.end.p0(i64 8, ptr nonnull %4) #10
  call void @llvm.lifetime.end.p0(i64 4, ptr nonnull %3) #10
  ret i32 %.0
}